target datalayout = "e-m:e-p270:32:32-p271:32:32-p272:64:64-i64:64-i128:128-f80:128-n8:16:32:64-S128"
target triple = "x86_64-pc-linux-gnu"

%struct.Vec_Ptr_t_ = type { i32, i32, ptr }

; Function Attrs: inlinehint nounwind uwtable
define internal void @Vec_PtrGrow(ptr noundef %0, i32 noundef %1) #2 {
  %3 = alloca ptr, align 8
  %4 = alloca i32, align 4
  store ptr %0, ptr %3, align 8, !tbaa !9
  store i32 %1, ptr %4, align 4, !tbaa !13
  %5 = load ptr, ptr %3, align 8, !tbaa !9
  %6 = getelementptr inbounds nuw %struct.Vec_Ptr_t_, ptr %5, i32 0, i32 0
  %7 = load i32, ptr %6, align 8, !tbaa !40
  %8 = load i32, ptr %4, align 4, !tbaa !13
  %9 = icmp sge i32 %7, %8
  br i1 %9, label %10, label %11

10:                                               ; preds = %2
  br label %36

11:                                               ; preds = %2
  %12 = load ptr, ptr %3, align 8, !tbaa !9
  %13 = getelementptr inbounds nuw %struct.Vec_Ptr_t_, ptr %12, i32 0, i32 2
  %14 = load ptr, ptr %13, align 8, !tbaa !39
  %15 = icmp ne ptr %14, null
  br i1 %15, label %16, label %24

16:                                               ; preds = %11
  %17 = load ptr, ptr %3, align 8, !tbaa !9
  %18 = getelementptr inbounds nuw %struct.Vec_Ptr_t_, ptr %17, i32 0, i32 2
  %19 = load ptr, ptr %18, align 8, !tbaa !39
  %20 = load i32, ptr %4, align 4, !tbaa !13
  %21 = sext i32 %20 to i64
  %22 = mul i64 8, %21
  %23 = call ptr @realloc(ptr noundef %19, i64 noundef %22) #10
  br label %29

24:                                               ; preds = %11
  %25 = load i32, ptr %4, align 4, !tbaa !13
  %26 = sext i32 %25 to i64
  %27 = mul i64 8, %26
  %28 = call noalias ptr @malloc(i64 noundef %27) #11
  br label %29

29:                                               ; preds = %24, %16
  %30 = phi ptr [ %23, %16 ], [ %28, %24 ]
  %31 = load ptr, ptr %3, align 8, !tbaa !9
  %32 = getelementptr inbounds nuw %struct.Vec_Ptr_t_, ptr %31, i32 0, i32 2
  store ptr %30, ptr %32, align 8, !tbaa !39
  %33 = load i32, ptr %4, align 4, !tbaa !13
  %34 = load ptr, ptr %3, align 8, !tbaa !9
  %35 = getelementptr inbounds nuw %struct.Vec_Ptr_t_, ptr %34, i32 0, i32 0
  store i32 %33, ptr %35, align 8, !tbaa !40
  br label %36

36:                                               ; preds = %29, %10
  ret void
}

; Function Attrs: inlinehint nounwind uwtable
define internal void @Vec_PtrPush(ptr noundef %0, ptr noundef %1) #2 {
  %3 = alloca ptr, align 8
  %4 = alloca ptr, align 8
  store ptr %0, ptr %3, align 8, !tbaa !9
  store ptr %1, ptr %4, align 8, !tbaa !8
  %5 = load ptr, ptr %3, align 8, !tbaa !9
  %6 = getelementptr inbounds nuw %struct.Vec_Ptr_t_, ptr %5, i32 0, i32 1
  %7 = load i32, ptr %6, align 4, !tbaa !22
  %8 = load ptr, ptr %3, align 8, !tbaa !9
  %9 = getelementptr inbounds nuw %struct.Vec_Ptr_t_, ptr %8, i32 0, i32 0
  %10 = load i32, ptr %9, align 8, !tbaa !40
  %11 = icmp eq i32 %7, %10
  br i1 %11, label %12, label %26

12:                                               ; preds = %2
  %13 = load ptr, ptr %3, align 8, !tbaa !9
  %14 = getelementptr inbounds nuw %struct.Vec_Ptr_t_, ptr %13, i32 0, i32 0
  %15 = load i32, ptr %14, align 8, !tbaa !40
  %16 = icmp slt i32 %15, 16
  br i1 %16, label %17, label %19

17:                                               ; preds = %12
  %18 = load ptr, ptr %3, align 8, !tbaa !9
  call void @Vec_PtrGrow(ptr noundef %18, i32 noundef 16)
  br label %25

19:                                               ; preds = %12
  %20 = load ptr, ptr %3, align 8, !tbaa !9
  %21 = load ptr, ptr %3, align 8, !tbaa !9
  %22 = getelementptr inbounds nuw %struct.Vec_Ptr_t_, ptr %21, i32 0, i32 0
  %23 = load i32, ptr %22, align 8, !tbaa !40
  %24 = mul nsw i32 2, %23
  call void @Vec_PtrGrow(ptr noundef %20, i32 noundef %24)
  br label %25

25:                                               ; preds = %19, %17
  br label %26

26:                                               ; preds = %25, %2
  %27 = load ptr, ptr %4, align 8, !tbaa !8
  %28 = load ptr, ptr %3, align 8, !tbaa !9
  %29 = getelementptr inbounds nuw %struct.Vec_Ptr_t_, ptr %28, i32 0, i32 2
  %30 = load ptr, ptr %29, align 8, !tbaa !39
  %31 = load ptr, ptr %3, align 8, !tbaa !9
  %32 = getelementptr inbounds nuw %struct.Vec_Ptr_t_, ptr %31, i32 0, i32 1
  %33 = load i32, ptr %32, align 4, !tbaa !22
  %34 = add nsw i32 %33, 1
  store i32 %34, ptr %32, align 4, !tbaa !22
  %35 = sext i32 %33 to i64
  %36 = getelementptr inbounds ptr, ptr %30, i64 %35
  store ptr %27, ptr %36, align 8, !tbaa !8
  ret void
}

; Function Attrs: inlinehint nounwind uwtable
define internal ptr @Vec_PtrEntry(ptr noundef %0, i32 noundef %1) #2 {
  %3 = alloca ptr, align 8
  %4 = alloca i32, align 4
  store ptr %0, ptr %3, align 8, !tbaa !9
  store i32 %1, ptr %4, align 4, !tbaa !13
  %5 = load ptr, ptr %3, align 8, !tbaa !9
  %6 = getelementptr inbounds nuw %struct.Vec_Ptr_t_, ptr %5, i32 0, i32 2
  %7 = load ptr, ptr %6, align 8, !tbaa !39
  %8 = load i32, ptr %4, align 4, !tbaa !13
  %9 = sext i32 %8 to i64
  %10 = getelementptr inbounds ptr, ptr %7, i64 %9
  %11 = load ptr, ptr %10, align 8, !tbaa !8
  ret ptr %11
}

; Function Attrs: inlinehint nounwind uwtable
define internal i32 @Vec_PtrSize(ptr noundef %0) #2 {
  %2 = alloca ptr, align 8
  store ptr %0, ptr %2, align 8, !tbaa !9
  %3 = load ptr, ptr %2, align 8, !tbaa !9
  %4 = getelementptr inbounds nuw %struct.Vec_Ptr_t_, ptr %3, i32 0, i32 1
  %5 = load i32, ptr %4, align 4, !tbaa !22
  ret i32 %5
}

; Function Attrs: nounwind uwtable
define internal i32 @Ver_FormulaParserFindVar(ptr noundef %0, ptr noundef %1) #0 {
  %3 = alloca i32, align 4
  %4 = alloca ptr, align 8
  %5 = alloca ptr, align 8
  %6 = alloca ptr, align 8
  %7 = alloca ptr, align 8
  %8 = alloca i32, align 4
  %9 = alloca i32, align 4
  %10 = alloca i32, align 4
  %11 = alloca i32, align 4
  store ptr %0, ptr %4, align 8, !tbaa !3
  store ptr %1, ptr %5, align 8, !tbaa !9
  call void @llvm.lifetime.start.p0(i64 8, ptr %6) #8
  call void @llvm.lifetime.start.p0(i64 8, ptr %7) #8
  call void @llvm.lifetime.start.p0(i64 4, ptr %8) #8
  call void @llvm.lifetime.start.p0(i64 4, ptr %9) #8
  call void @llvm.lifetime.start.p0(i64 4, ptr %10) #8
  %12 = load ptr, ptr %4, align 8, !tbaa !3
  store ptr %12, ptr %6, align 8, !tbaa !3
  %13 = load ptr, ptr %6, align 8, !tbaa !3
  %14 = load i8, ptr %13, align 1, !tbaa !15
  %15 = sext i8 %14 to i32
  %16 = icmp eq i32 %15, 92
  br i1 %16, label %17, label %36

17:                                               ; preds = %2
  %18 = load ptr, ptr %4, align 8, !tbaa !3
  %19 = getelementptr inbounds nuw i8, ptr %18, i32 1
  store ptr %19, ptr %4, align 8, !tbaa !3
  br label %20

20:                                               ; preds = %32, %17
  %21 = load ptr, ptr %6, align 8, !tbaa !3
  %22 = load i8, ptr %21, align 1, !tbaa !15
  %23 = sext i8 %22 to i32
  %24 = icmp ne i32 %23, 0
  br i1 %24, label %25, label %30

25:                                               ; preds = %20
  %26 = load ptr, ptr %6, align 8, !tbaa !3
  %27 = load i8, ptr %26, align 1, !tbaa !15
  %28 = sext i8 %27 to i32
  %29 = icmp ne i32 %28, 32
  br label %30

30:                                               ; preds = %25, %20
  %31 = phi i1 [ false, %20 ], [ %29, %25 ]
  br i1 %31, label %32, label %35

32:                                               ; preds = %30
  %33 = load ptr, ptr %6, align 8, !tbaa !3
  %34 = getelementptr inbounds nuw i8, ptr %33, i32 1
  store ptr %34, ptr %6, align 8, !tbaa !3
  br label %20, !llvm.loop !36

35:                                               ; preds = %30
  br label %123

36:                                               ; preds = %2
  br label %37

37:                                               ; preds = %119, %36
  %38 = load ptr, ptr %6, align 8, !tbaa !3
  %39 = load i8, ptr %38, align 1, !tbaa !15
  %40 = sext i8 %39 to i32
  %41 = icmp ne i32 %40, 0
  br i1 %41, label %42, label %117

42:                                               ; preds = %37
  %43 = load ptr, ptr %6, align 8, !tbaa !3
  %44 = load i8, ptr %43, align 1, !tbaa !15
  %45 = sext i8 %44 to i32
  %46 = icmp ne i32 %45, 32
  br i1 %46, label %47, label %117

47:                                               ; preds = %42
  %48 = load ptr, ptr %6, align 8, !tbaa !3
  %49 = load i8, ptr %48, align 1, !tbaa !15
  %50 = sext i8 %49 to i32
  %51 = icmp ne i32 %50, 9
  br i1 %51, label %52, label %117

52:                                               ; preds = %47
  %53 = load ptr, ptr %6, align 8, !tbaa !3
  %54 = load i8, ptr %53, align 1, !tbaa !15
  %55 = sext i8 %54 to i32
  %56 = icmp ne i32 %55, 13
  br i1 %56, label %57, label %117

57:                                               ; preds = %52
  %58 = load ptr, ptr %6, align 8, !tbaa !3
  %59 = load i8, ptr %58, align 1, !tbaa !15
  %60 = sext i8 %59 to i32
  %61 = icmp ne i32 %60, 10
  br i1 %61, label %62, label %117

62:                                               ; preds = %57
  %63 = load ptr, ptr %6, align 8, !tbaa !3
  %64 = load i8, ptr %63, align 1, !tbaa !15
  %65 = sext i8 %64 to i32
  %66 = icmp ne i32 %65, 44
  br i1 %66, label %67, label %117

67:                                               ; preds = %62
  %68 = load ptr, ptr %6, align 8, !tbaa !3
  %69 = load i8, ptr %68, align 1, !tbaa !15
  %70 = sext i8 %69 to i32
  %71 = icmp ne i32 %70, 125
  br i1 %71, label %72, label %117

72:                                               ; preds = %67
  %73 = load ptr, ptr %6, align 8, !tbaa !3
  %74 = load i8, ptr %73, align 1, !tbaa !15
  %75 = sext i8 %74 to i32
  %76 = icmp ne i32 %75, 40
  br i1 %76, label %77, label %117

77:                                               ; preds = %72
  %78 = load ptr, ptr %6, align 8, !tbaa !3
  %79 = load i8, ptr %78, align 1, !tbaa !15
  %80 = sext i8 %79 to i32
  %81 = icmp ne i32 %80, 41
  br i1 %81, label %82, label %117

82:                                               ; preds = %77
  %83 = load ptr, ptr %6, align 8, !tbaa !3
  %84 = load i8, ptr %83, align 1, !tbaa !15
  %85 = sext i8 %84 to i32
  %86 = icmp ne i32 %85, 33
  br i1 %86, label %87, label %117

87:                                               ; preds = %82
  %88 = load ptr, ptr %6, align 8, !tbaa !3
  %89 = load i8, ptr %88, align 1, !tbaa !15
  %90 = sext i8 %89 to i32
  %91 = icmp ne i32 %90, 126
  br i1 %91, label %92, label %117

92:                                               ; preds = %87
  %93 = load ptr, ptr %6, align 8, !tbaa !3
  %94 = load i8, ptr %93, align 1, !tbaa !15
  %95 = sext i8 %94 to i32
  %96 = icmp ne i32 %95, 38
  br i1 %96, label %97, label %117

97:                                               ; preds = %92
  %98 = load ptr, ptr %6, align 8, !tbaa !3
  %99 = load i8, ptr %98, align 1, !tbaa !15
  %100 = sext i8 %99 to i32
  %101 = icmp ne i32 %100, 124
  br i1 %101, label %102, label %117

102:                                              ; preds = %97
  %103 = load ptr, ptr %6, align 8, !tbaa !3
  %104 = load i8, ptr %103, align 1, !tbaa !15
  %105 = sext i8 %104 to i32
  %106 = icmp ne i32 %105, 94
  br i1 %106, label %107, label %117

107:                                              ; preds = %102
  %108 = load ptr, ptr %6, align 8, !tbaa !3
  %109 = load i8, ptr %108, align 1, !tbaa !15
  %110 = sext i8 %109 to i32
  %111 = icmp ne i32 %110, 63
  br i1 %111, label %112, label %117

112:                                              ; preds = %107
  %113 = load ptr, ptr %6, align 8, !tbaa !3
  %114 = load i8, ptr %113, align 1, !tbaa !15
  %115 = sext i8 %114 to i32
  %116 = icmp ne i32 %115, 58
  br label %117

117:                                              ; preds = %112, %107, %102, %97, %92, %87, %82, %77, %72, %67, %62, %57, %52, %47, %42, %37
  %118 = phi i1 [ false, %107 ], [ false, %102 ], [ false, %97 ], [ false, %92 ], [ false, %87 ], [ false, %82 ], [ false, %77 ], [ false, %72 ], [ false, %67 ], [ false, %62 ], [ false, %57 ], [ false, %52 ], [ false, %47 ], [ false, %42 ], [ false, %37 ], [ %116, %112 ]
  br i1 %118, label %119, label %122

119:                                              ; preds = %117
  %120 = load ptr, ptr %6, align 8, !tbaa !3
  %121 = getelementptr inbounds nuw i8, ptr %120, i32 1
  store ptr %121, ptr %6, align 8, !tbaa !3
  br label %37, !llvm.loop !37

122:                                              ; preds = %117
  br label %123

123:                                              ; preds = %122, %35
  %124 = load ptr, ptr %6, align 8, !tbaa !3
  %125 = load ptr, ptr %4, align 8, !tbaa !3
  %126 = ptrtoint ptr %124 to i64
  %127 = ptrtoint ptr %125 to i64
  %128 = sub i64 %126, %127
  %129 = trunc i64 %128 to i32
  store i32 %129, ptr %8, align 4, !tbaa !13
  store i32 0, ptr %10, align 4, !tbaa !13
  br label %130

130:                                              ; preds = %163, %123
  %131 = load i32, ptr %10, align 4, !tbaa !13
  %132 = load ptr, ptr %5, align 8, !tbaa !9
  %133 = call i32 @Vec_PtrSize(ptr noundef %132)
  %134 = sdiv i32 %133, 2
  %135 = icmp slt i32 %131, %134
  br i1 %135, label %136, label %166

136:                                              ; preds = %130
  %137 = load ptr, ptr %5, align 8, !tbaa !9
  %138 = load i32, ptr %10, align 4, !tbaa !13
  %139 = mul nsw i32 2, %138
  %140 = add nsw i32 %139, 0
  %141 = call ptr @Vec_PtrEntry(ptr noundef %137, i32 noundef %140)
  %142 = ptrtoint ptr %141 to i64
  %143 = trunc i64 %142 to i32
  store i32 %143, ptr %9, align 4, !tbaa !13
  %144 = load i32, ptr %9, align 4, !tbaa !13
  %145 = load i32, ptr %8, align 4, !tbaa !13
  %146 = icmp ne i32 %144, %145
  br i1 %146, label %147, label %148

147:                                              ; preds = %136
  br label %163

148:                                              ; preds = %136
  %149 = load ptr, ptr %5, align 8, !tbaa !9
  %150 = load i32, ptr %10, align 4, !tbaa !13
  %151 = mul nsw i32 2, %150
  %152 = add nsw i32 %151, 1
  %153 = call ptr @Vec_PtrEntry(ptr noundef %149, i32 noundef %152)
  store ptr %153, ptr %7, align 8, !tbaa !3
  %154 = load ptr, ptr %4, align 8, !tbaa !3
  %155 = load ptr, ptr %7, align 8, !tbaa !3
  %156 = load i32, ptr %8, align 4, !tbaa !13
  %157 = sext i32 %156 to i64
  %158 = call i32 @strncmp(ptr noundef %154, ptr noundef %155, i64 noundef %157) #9
  %159 = icmp ne i32 %158, 0
  br i1 %159, label %160, label %161

160:                                              ; preds = %148
  br label %163

161:                                              ; preds = %148
  %162 = load i32, ptr %10, align 4, !tbaa !13
  store i32 %162, ptr %3, align 4
  store i32 1, ptr %11, align 4
  br label %174

163:                                              ; preds = %160, %147
  %164 = load i32, ptr %10, align 4, !tbaa !13
  %165 = add nsw i32 %164, 1
  store i32 %165, ptr %10, align 4, !tbaa !13
  br label %130, !llvm.loop !38

166:                                              ; preds = %130
  %167 = load ptr, ptr %5, align 8, !tbaa !9
  %168 = load i32, ptr %8, align 4, !tbaa !13
  %169 = sext i32 %168 to i64
  %170 = inttoptr i64 %169 to ptr
  call void @Vec_PtrPush(ptr noundef %167, ptr noundef %170)
  %171 = load ptr, ptr %5, align 8, !tbaa !9
  %172 = load ptr, ptr %4, align 8, !tbaa !3
  call void @Vec_PtrPush(ptr noundef %171, ptr noundef %172)
  %173 = load i32, ptr %10, align 4, !tbaa !13
  store i32 %173, ptr %3, align 4
  store i32 1, ptr %11, align 4
  br label %174

174:                                              ; preds = %166, %161
  call void @llvm.lifetime.end.p0(i64 4, ptr %10) #8
  call void @llvm.lifetime.end.p0(i64 4, ptr %9) #8
  call void @llvm.lifetime.end.p0(i64 4, ptr %8) #8
  call void @llvm.lifetime.end.p0(i64 8, ptr %7) #8
  call void @llvm.lifetime.end.p0(i64 8, ptr %6) #8
  %175 = load i32, ptr %3, align 4
  ret i32 %175
}